
env.o:     file format elf32-tradbigmips

Disassembly of section .text:

00000000 <mkenvid>:
   0:	3c020000 	lui	v0,0x0
   4:	8c420000 	lw	v0,0(v0)
   8:	00822023 	subu	a0,a0,v0
   c:	000420c3 	sra	a0,a0,0x3
  10:	00041080 	sll	v0,a0,0x2
  14:	00041900 	sll	v1,a0,0x4
  18:	00431021 	addu	v0,v0,v1
  1c:	00441023 	subu	v0,v0,a0
  20:	00021a40 	sll	v1,v0,0x9
  24:	00621823 	subu	v1,v1,v0
  28:	00031480 	sll	v0,v1,0x12
  2c:	00621821 	addu	v1,v1,v0
  30:	00031823 	negu	v1,v1
  34:	3c040000 	lui	a0,0x0
  38:	8c820008 	lw	v0,8(a0)
  3c:	24420001 	addiu	v0,v0,1
  40:	ac820008 	sw	v0,8(a0)
  44:	000212c0 	sll	v0,v0,0xb
  48:	03e00008 	jr	ra
  4c:	00621025 	or	v0,v1,v0

00000050 <envid2env>:
  50:	14800006 	bnez	a0,6c <envid2env+0x1c>
  54:	308703ff 	andi	a3,a0,0x3ff
  58:	3c020000 	lui	v0,0x0
  5c:	8c420000 	lw	v0,0(v0)
  60:	aca20000 	sw	v0,0(a1)
  64:	03e00008 	jr	ra
  68:	00001021 	move	v0,zero
  6c:	3c020000 	lui	v0,0x0
  70:	8c490000 	lw	t1,0(v0)
  74:	000718c0 	sll	v1,a3,0x3
  78:	00071140 	sll	v0,a3,0x5
  7c:	00431023 	subu	v0,v0,v1
  80:	000218c0 	sll	v1,v0,0x3
  84:	00431021 	addu	v0,v0,v1
  88:	00494021 	addu	t0,v0,t1
  8c:	8d0200ac 	lw	v0,172(t0)
  90:	10400004 	beqz	v0,a4 <envid2env+0x54>
  94:	00000000 	nop
  98:	8d0200a4 	lw	v0,164(t0)
  9c:	10820004 	beq	a0,v0,b0 <envid2env+0x60>
  a0:	00000000 	nop
  a4:	aca00000 	sw	zero,0(a1)
  a8:	03e00008 	jr	ra
  ac:	2402fffe 	li	v0,-2
  b0:	14c0001a 	bnez	a2,11c <envid2env+0xcc>
  b4:	00000000 	nop
  b8:	10000016 	b	114 <envid2env+0xc4>
  bc:	aca80000 	sw	t0,0(a1)
  c0:	01001021 	move	v0,t0
  c4:	8c4200a8 	lw	v0,168(v0)
  c8:	304703ff 	andi	a3,v0,0x3ff
  cc:	000718c0 	sll	v1,a3,0x3
  d0:	00071140 	sll	v0,a3,0x5
  d4:	00431023 	subu	v0,v0,v1
  d8:	000218c0 	sll	v1,v0,0x3
  dc:	00431021 	addu	v0,v0,v1
  e0:	01221021 	addu	v0,t1,v0
  e4:	10820005 	beq	a0,v0,fc <envid2env+0xac>
  e8:	00000000 	nop
  ec:	10e00005 	beqz	a3,104 <envid2env+0xb4>
  f0:	00000000 	nop
  f4:	1000fff4 	b	c8 <envid2env+0x78>
  f8:	8c4200a8 	lw	v0,168(v0)
  fc:	14e00004 	bnez	a3,110 <envid2env+0xc0>
 100:	00000000 	nop
 104:	aca00000 	sw	zero,0(a1)
 108:	03e00008 	jr	ra
 10c:	2402fffe 	li	v0,-2
 110:	aca80000 	sw	t0,0(a1)
 114:	03e00008 	jr	ra
 118:	00001021 	move	v0,zero
 11c:	3c020000 	lui	v0,0x0
 120:	8c440000 	lw	a0,0(v0)
 124:	1104fff5 	beq	t0,a0,fc <envid2env+0xac>
 128:	00000000 	nop
 12c:	14e0ffe4 	bnez	a3,c0 <envid2env+0x70>
 130:	00000000 	nop
 134:	1000fff4 	b	108 <envid2env+0xb8>
 138:	aca00000 	sw	zero,0(a1)

0000013c <envid2env1>:
 13c:	14800006 	bnez	a0,158 <envid2env1+0x1c>
 140:	308703ff 	andi	a3,a0,0x3ff
 144:	3c020000 	lui	v0,0x0
 148:	8c420000 	lw	v0,0(v0)
 14c:	aca20000 	sw	v0,0(a1)
 150:	03e00008 	jr	ra
 154:	00001021 	move	v0,zero
 158:	3c020000 	lui	v0,0x0
 15c:	8c490000 	lw	t1,0(v0)
 160:	000718c0 	sll	v1,a3,0x3
 164:	00071140 	sll	v0,a3,0x5
 168:	00431023 	subu	v0,v0,v1
 16c:	000218c0 	sll	v1,v0,0x3
 170:	00431021 	addu	v0,v0,v1
 174:	00494021 	addu	t0,v0,t1
 178:	8d0200ac 	lw	v0,172(t0)
 17c:	10400004 	beqz	v0,190 <envid2env1+0x54>
 180:	00000000 	nop
 184:	8d0200a4 	lw	v0,164(t0)
 188:	10820004 	beq	a0,v0,19c <envid2env1+0x60>
 18c:	00000000 	nop
 190:	aca00000 	sw	zero,0(a1)
 194:	03e00008 	jr	ra
 198:	2402fffe 	li	v0,-2
 19c:	14c0001a 	bnez	a2,208 <envid2env1+0xcc>
 1a0:	00000000 	nop
 1a4:	10000016 	b	200 <envid2env1+0xc4>
 1a8:	aca80000 	sw	t0,0(a1)
 1ac:	01001021 	move	v0,t0
 1b0:	8c4200a8 	lw	v0,168(v0)
 1b4:	304703ff 	andi	a3,v0,0x3ff
 1b8:	000718c0 	sll	v1,a3,0x3
 1bc:	00071140 	sll	v0,a3,0x5
 1c0:	00431023 	subu	v0,v0,v1
 1c4:	000218c0 	sll	v1,v0,0x3
 1c8:	00431021 	addu	v0,v0,v1
 1cc:	01221021 	addu	v0,t1,v0
 1d0:	10820005 	beq	a0,v0,1e8 <envid2env1+0xac>
 1d4:	00000000 	nop
 1d8:	10e00005 	beqz	a3,1f0 <envid2env1+0xb4>
 1dc:	00000000 	nop
 1e0:	1000fff4 	b	1b4 <envid2env1+0x78>
 1e4:	8c4200a8 	lw	v0,168(v0)
 1e8:	14e00004 	bnez	a3,1fc <envid2env1+0xc0>
 1ec:	00000000 	nop
 1f0:	aca00000 	sw	zero,0(a1)
 1f4:	03e00008 	jr	ra
 1f8:	2402fffe 	li	v0,-2
 1fc:	aca80000 	sw	t0,0(a1)
 200:	03e00008 	jr	ra
 204:	00001021 	move	v0,zero
 208:	3c020000 	lui	v0,0x0
 20c:	8c440000 	lw	a0,0(v0)
 210:	1104fff5 	beq	t0,a0,1e8 <envid2env1+0xac>
 214:	00000000 	nop
 218:	14e0ffe4 	bnez	a3,1ac <envid2env1+0x70>
 21c:	00000000 	nop
 220:	1000fff4 	b	1f4 <envid2env1+0xb8>
 224:	aca00000 	sw	zero,0(a1)

00000228 <env_init>:
 228:	27bdffe8 	addiu	sp,sp,-24
 22c:	afbf0010 	sw	ra,16(sp)
 230:	3c040000 	lui	a0,0x0
 234:	24840000 	addiu	a0,a0,0
 238:	3c020000 	lui	v0,0x0
 23c:	0c000000 	jal	0 <mkenvid>
 240:	8c450000 	lw	a1,0(v0)
 244:	3c020000 	lui	v0,0x0
 248:	ac40000c 	sw	zero,12(v0)
 24c:	3c020003 	lui	v0,0x3
 250:	34445f28 	ori	a0,v0,0x5f28
 254:	3c050000 	lui	a1,0x0
 258:	3c070000 	lui	a3,0x0
 25c:	24e9000c 	addiu	t1,a3,12
 260:	2408ff28 	li	t0,-216
 264:	00803021 	move	a2,a0
 268:	8ca20000 	lw	v0,0(a1)
 26c:	00441021 	addu	v0,v0,a0
 270:	ac4000ac 	sw	zero,172(v0)
 274:	8ce3000c 	lw	v1,12(a3)
 278:	8ca20000 	lw	v0,0(a1)
 27c:	00441021 	addu	v0,v0,a0
 280:	10600006 	beqz	v1,29c <env_init+0x74>
 284:	ac43009c 	sw	v1,156(v0)
 288:	8ce3000c 	lw	v1,12(a3)
 28c:	8ca20000 	lw	v0,0(a1)
 290:	00821021 	addu	v0,a0,v0
 294:	2442009c 	addiu	v0,v0,156
 298:	ac6200a0 	sw	v0,160(v1)
 29c:	8ca20000 	lw	v0,0(a1)
 2a0:	00c21021 	addu	v0,a2,v0
 2a4:	ace2000c 	sw	v0,12(a3)
 2a8:	2484ff28 	addiu	a0,a0,-216
 2ac:	1488ffed 	bne	a0,t0,264 <env_init+0x3c>
 2b0:	ac4900a0 	sw	t1,160(v0)
 2b4:	3c040000 	lui	a0,0x0
 2b8:	0c000000 	jal	0 <mkenvid>
 2bc:	24840000 	addiu	a0,a0,0
 2c0:	8fbf0010 	lw	ra,16(sp)
 2c4:	03e00008 	jr	ra
 2c8:	27bd0018 	addiu	sp,sp,24

000002cc <env_setup_vm>:
 2cc:	27bdffd8 	addiu	sp,sp,-40
 2d0:	afbf0024 	sw	ra,36(sp)
 2d4:	afb00020 	sw	s0,32(sp)
 2d8:	00808021 	move	s0,a0
 2dc:	afa00018 	sw	zero,24(sp)
 2e0:	0c000000 	jal	0 <mkenvid>
 2e4:	27a40018 	addiu	a0,sp,24
 2e8:	04410007 	bgez	v0,308 <env_setup_vm+0x3c>
 2ec:	8fa30018 	lw	v1,24(sp)
 2f0:	3c040000 	lui	a0,0x0
 2f4:	24840000 	addiu	a0,a0,0
 2f8:	2405009c 	li	a1,156
 2fc:	3c060000 	lui	a2,0x0
 300:	0c000000 	jal	0 <mkenvid>
 304:	24c60000 	addiu	a2,a2,0
 308:	94620008 	lhu	v0,8(v1)
 30c:	24420001 	addiu	v0,v0,1
 310:	a4620008 	sh	v0,8(v1)
 314:	3c020000 	lui	v0,0x0
 318:	8c420000 	lw	v0,0(v0)
 31c:	8fa30018 	lw	v1,24(sp)
 320:	00621823 	subu	v1,v1,v0
 324:	00031883 	sra	v1,v1,0x2
 328:	00031080 	sll	v0,v1,0x2
 32c:	00431021 	addu	v0,v0,v1
 330:	00021900 	sll	v1,v0,0x4
 334:	00431021 	addu	v0,v0,v1
 338:	00021a00 	sll	v1,v0,0x8
 33c:	00431021 	addu	v0,v0,v1
 340:	00021c00 	sll	v1,v0,0x10
 344:	00431021 	addu	v0,v0,v1
 348:	00021023 	negu	v0,v0
 34c:	00023b00 	sll	a3,v0,0xc
 350:	00071302 	srl	v0,a3,0xc
 354:	3c030000 	lui	v1,0x0
 358:	8c630000 	lw	v1,0(v1)
 35c:	0043102b 	sltu	v0,v0,v1
 360:	14400007 	bnez	v0,380 <env_setup_vm+0xb4>
 364:	3c028000 	lui	v0,0x8000
 368:	3c040000 	lui	a0,0x0
 36c:	24840000 	addiu	a0,a0,0
 370:	24050030 	li	a1,48
 374:	3c060000 	lui	a2,0x0
 378:	0c000000 	jal	0 <mkenvid>
 37c:	24c60000 	addiu	a2,a2,0
 380:	00e23821 	addu	a3,a3,v0
 384:	00001821 	move	v1,zero
 388:	3c047f40 	lui	a0,0x7f40
 38c:	00031582 	srl	v0,v1,0x16
 390:	00021080 	sll	v0,v0,0x2
 394:	00471021 	addu	v0,v0,a3
 398:	24631000 	addiu	v1,v1,4096
 39c:	1464fffb 	bne	v1,a0,38c <env_setup_vm+0xc0>
 3a0:	ac400000 	sw	zero,0(v0)
 3a4:	240407f4 	li	a0,2036
 3a8:	3c060000 	lui	a2,0x0
 3ac:	24051000 	li	a1,4096
 3b0:	00e41021 	addu	v0,a3,a0
 3b4:	8cc30000 	lw	v1,0(a2)
 3b8:	00831821 	addu	v1,a0,v1
 3bc:	8c630000 	lw	v1,0(v1)
 3c0:	24840004 	addiu	a0,a0,4
 3c4:	1485fffa 	bne	a0,a1,3b0 <env_setup_vm+0xe4>
 3c8:	ac430000 	sw	v1,0(v0)
 3cc:	ae0700b0 	sw	a3,176(s0)
 3d0:	04e00007 	bltz	a3,3f0 <env_setup_vm+0x124>
 3d4:	00e01021 	move	v0,a3
 3d8:	3c040000 	lui	a0,0x0
 3dc:	24840000 	addiu	a0,a0,0
 3e0:	240500b9 	li	a1,185
 3e4:	3c060000 	lui	a2,0x0
 3e8:	0c000000 	jal	0 <mkenvid>
 3ec:	24c60000 	addiu	a2,a2,0
 3f0:	3c078000 	lui	a3,0x8000
 3f4:	00473821 	addu	a3,v0,a3
 3f8:	ae0700b4 	sw	a3,180(s0)
 3fc:	8e0400b0 	lw	a0,176(s0)
 400:	24020400 	li	v0,1024
 404:	afa20010 	sw	v0,16(sp)
 408:	3c057fc0 	lui	a1,0x7fc0
 40c:	0c000000 	jal	0 <mkenvid>
 410:	3c060040 	lui	a2,0x40
 414:	8e0300b0 	lw	v1,176(s0)
 418:	8e0200b4 	lw	v0,180(s0)
 41c:	34420600 	ori	v0,v0,0x600
 420:	ac6207fc 	sw	v0,2044(v1)
 424:	00001021 	move	v0,zero
 428:	8fbf0024 	lw	ra,36(sp)
 42c:	8fb00020 	lw	s0,32(sp)
 430:	03e00008 	jr	ra
 434:	27bd0028 	addiu	sp,sp,40

00000438 <env_alloc>:
 438:	27bdffe0 	addiu	sp,sp,-32
 43c:	afbf001c 	sw	ra,28(sp)
 440:	afb20018 	sw	s2,24(sp)
 444:	afb10014 	sw	s1,20(sp)
 448:	afb00010 	sw	s0,16(sp)
 44c:	00809021 	move	s2,a0
 450:	3c020000 	lui	v0,0x0
 454:	8c50000c 	lw	s0,12(v0)
 458:	16000003 	bnez	s0,468 <env_alloc+0x30>
 45c:	00a08821 	move	s1,a1
 460:	1000001e 	b	4dc <env_alloc+0xa4>
 464:	2402fffb 	li	v0,-5
 468:	0c0000b3 	jal	2cc <env_setup_vm>
 46c:	02002021 	move	a0,s0
 470:	0440001b 	bltz	v0,4e0 <env_alloc+0xa8>
 474:	8fbf001c 	lw	ra,28(sp)
 478:	0c000000 	jal	0 <mkenvid>
 47c:	02002021 	move	a0,s0
 480:	ae0200a4 	sw	v0,164(s0)
 484:	ae1100a8 	sw	s1,168(s0)
 488:	24020001 	li	v0,1
 48c:	ae0200ac 	sw	v0,172(s0)
 490:	3c027f3f 	lui	v0,0x7f3f
 494:	3442e000 	ori	v0,v0,0xe000
 498:	ae020074 	sw	v0,116(s0)
 49c:	3c021000 	lui	v0,0x1000
 4a0:	34421004 	ori	v0,v0,0x1004
 4a4:	ae020080 	sw	v0,128(s0)
 4a8:	ae0000c0 	sw	zero,192(s0)
 4ac:	ae0000cc 	sw	zero,204(s0)
 4b0:	ae0000d0 	sw	zero,208(s0)
 4b4:	8e03009c 	lw	v1,156(s0)
 4b8:	10600003 	beqz	v1,4c8 <env_alloc+0x90>
 4bc:	00000000 	nop
 4c0:	8e0200a0 	lw	v0,160(s0)
 4c4:	ac6200a0 	sw	v0,160(v1)
 4c8:	8e0300a0 	lw	v1,160(s0)
 4cc:	8e02009c 	lw	v0,156(s0)
 4d0:	ac620000 	sw	v0,0(v1)
 4d4:	ae500000 	sw	s0,0(s2)
 4d8:	00001021 	move	v0,zero
 4dc:	8fbf001c 	lw	ra,28(sp)
 4e0:	8fb20018 	lw	s2,24(sp)
 4e4:	8fb10014 	lw	s1,20(sp)
 4e8:	8fb00010 	lw	s0,16(sp)
 4ec:	03e00008 	jr	ra
 4f0:	27bd0020 	addiu	sp,sp,32

000004f4 <load_icode>:
 4f4:	27bdffc0 	addiu	sp,sp,-64
 4f8:	afbf0038 	sw	ra,56(sp)
 4fc:	afb70034 	sw	s7,52(sp)
 500:	afb60030 	sw	s6,48(sp)
 504:	afb5002c 	sw	s5,44(sp)
 508:	afb40028 	sw	s4,40(sp)
 50c:	afb30024 	sw	s3,36(sp)
 510:	afb20020 	sw	s2,32(sp)
 514:	afb1001c 	sw	s1,28(sp)
 518:	afb00018 	sw	s0,24(sp)
 51c:	00808821 	move	s1,a0
 520:	00c09821 	move	s3,a2
 524:	afa00010 	sw	zero,16(sp)
 528:	24b21000 	addiu	s2,a1,4096
 52c:	0c000000 	jal	0 <mkenvid>
 530:	27a40010 	addiu	a0,sp,16
 534:	8fa20010 	lw	v0,16(sp)
 538:	94430008 	lhu	v1,8(v0)
 53c:	24630001 	addiu	v1,v1,1
 540:	a4430008 	sh	v1,8(v0)
 544:	8e2400b0 	lw	a0,176(s1)
 548:	8fa50010 	lw	a1,16(sp)
 54c:	3c067f3f 	lui	a2,0x7f3f
 550:	34c6d000 	ori	a2,a2,0xd000
 554:	0c000000 	jal	0 <mkenvid>
 558:	24070600 	li	a3,1536
 55c:	12600031 	beqz	s3,624 <load_icode+0x130>
 560:	3c020040 	lui	v0,0x40
 564:	00008021 	move	s0,zero
 568:	3c170000 	lui	s7,0x0
 56c:	3c160000 	lui	s6,0x0
 570:	3c158000 	lui	s5,0x8000
 574:	3c140040 	lui	s4,0x40
 578:	0c000000 	jal	0 <mkenvid>
 57c:	27a40010 	addiu	a0,sp,16
 580:	8fa30010 	lw	v1,16(sp)
 584:	94620008 	lhu	v0,8(v1)
 588:	24420001 	addiu	v0,v0,1
 58c:	a4620008 	sh	v0,8(v1)
 590:	8ee20000 	lw	v0,0(s7)
 594:	8fa30010 	lw	v1,16(sp)
 598:	00621823 	subu	v1,v1,v0
 59c:	00031883 	sra	v1,v1,0x2
 5a0:	00031080 	sll	v0,v1,0x2
 5a4:	00431021 	addu	v0,v0,v1
 5a8:	00021900 	sll	v1,v0,0x4
 5ac:	00431021 	addu	v0,v0,v1
 5b0:	00021a00 	sll	v1,v0,0x8
 5b4:	00431021 	addu	v0,v0,v1
 5b8:	00021c00 	sll	v1,v0,0x10
 5bc:	00431021 	addu	v0,v0,v1
 5c0:	00021023 	negu	v0,v0
 5c4:	00023b00 	sll	a3,v0,0xc
 5c8:	00071302 	srl	v0,a3,0xc
 5cc:	8ec30000 	lw	v1,0(s6)
 5d0:	0043102b 	sltu	v0,v0,v1
 5d4:	14400007 	bnez	v0,5f4 <load_icode+0x100>
 5d8:	02502021 	addu	a0,s2,s0
 5dc:	3c040000 	lui	a0,0x0
 5e0:	24840000 	addiu	a0,a0,0
 5e4:	24050030 	li	a1,48
 5e8:	3c060000 	lui	a2,0x0
 5ec:	0c000000 	jal	0 <mkenvid>
 5f0:	24c60000 	addiu	a2,a2,0
 5f4:	00f52821 	addu	a1,a3,s5
 5f8:	0c000000 	jal	0 <mkenvid>
 5fc:	24061000 	li	a2,4096
 600:	8e2400b0 	lw	a0,176(s1)
 604:	8fa50010 	lw	a1,16(sp)
 608:	02143021 	addu	a2,s0,s4
 60c:	0c000000 	jal	0 <mkenvid>
 610:	24070600 	li	a3,1536
 614:	26101000 	addiu	s0,s0,4096
 618:	0213102b 	sltu	v0,s0,s3
 61c:	1440ffd6 	bnez	v0,578 <load_icode+0x84>
 620:	3c020040 	lui	v0,0x40
 624:	ae220098 	sw	v0,152(s1)
 628:	8fbf0038 	lw	ra,56(sp)
 62c:	8fb70034 	lw	s7,52(sp)
 630:	8fb60030 	lw	s6,48(sp)
 634:	8fb5002c 	lw	s5,44(sp)
 638:	8fb40028 	lw	s4,40(sp)
 63c:	8fb30024 	lw	s3,36(sp)
 640:	8fb20020 	lw	s2,32(sp)
 644:	8fb1001c 	lw	s1,28(sp)
 648:	8fb00018 	lw	s0,24(sp)
 64c:	03e00008 	jr	ra
 650:	27bd0040 	addiu	sp,sp,64

00000654 <env_create>:
 654:	27bdffd8 	addiu	sp,sp,-40
 658:	afbf0020 	sw	ra,32(sp)
 65c:	afb1001c 	sw	s1,28(sp)
 660:	afb00018 	sw	s0,24(sp)
 664:	00808021 	move	s0,a0
 668:	00a08821 	move	s1,a1
 66c:	27a40010 	addiu	a0,sp,16
 670:	0c000000 	jal	0 <mkenvid>
 674:	00002821 	move	a1,zero
 678:	8fa40010 	lw	a0,16(sp)
 67c:	02002821 	move	a1,s0
 680:	0c00013d 	jal	4f4 <load_icode>
 684:	02203021 	move	a2,s1
 688:	8fbf0020 	lw	ra,32(sp)
 68c:	8fb1001c 	lw	s1,28(sp)
 690:	8fb00018 	lw	s0,24(sp)
 694:	03e00008 	jr	ra
 698:	27bd0028 	addiu	sp,sp,40

0000069c <env_free>:
 69c:	27bdffc8 	addiu	sp,sp,-56
 6a0:	afbf0034 	sw	ra,52(sp)
 6a4:	afbe0030 	sw	s8,48(sp)
 6a8:	afb7002c 	sw	s7,44(sp)
 6ac:	afb60028 	sw	s6,40(sp)
 6b0:	afb50024 	sw	s5,36(sp)
 6b4:	afb40020 	sw	s4,32(sp)
 6b8:	afb3001c 	sw	s3,28(sp)
 6bc:	afb20018 	sw	s2,24(sp)
 6c0:	afb10014 	sw	s1,20(sp)
 6c4:	afb00010 	sw	s0,16(sp)
 6c8:	3c020000 	lui	v0,0x0
 6cc:	8c450000 	lw	a1,0(v0)
 6d0:	10a00002 	beqz	a1,6dc <env_free+0x40>
 6d4:	0080a021 	move	s4,a0
 6d8:	8ca500a4 	lw	a1,164(a1)
 6dc:	3c040000 	lui	a0,0x0
 6e0:	24840000 	addiu	a0,a0,0
 6e4:	0c000000 	jal	0 <mkenvid>
 6e8:	8e8600a4 	lw	a2,164(s4)
 6ec:	0000b821 	move	s7,zero
 6f0:	0017f080 	sll	s8,s7,0x2
 6f4:	8e8200b0 	lw	v0,176(s4)
 6f8:	005e1021 	addu	v0,v0,s8
 6fc:	8c470000 	lw	a3,0(v0)
 700:	30e20200 	andi	v0,a3,0x200
 704:	10400033 	beqz	v0,7d4 <env_free+0x138>
 708:	2402f000 	li	v0,-4096
 70c:	00e2b024 	and	s6,a3,v0
 710:	0016ab02 	srl	s5,s6,0xc
 714:	3c030000 	lui	v1,0x0
 718:	8c620000 	lw	v0,0(v1)
 71c:	02a2102b 	sltu	v0,s5,v0
 720:	14400008 	bnez	v0,744 <env_free+0xa8>
 724:	3c028000 	lui	v0,0x8000
 728:	3c040000 	lui	a0,0x0
 72c:	24840000 	addiu	a0,a0,0
 730:	2405014d 	li	a1,333
 734:	3c060000 	lui	a2,0x0
 738:	24c60000 	addiu	a2,a2,0
 73c:	0c000000 	jal	0 <mkenvid>
 740:	02c03821 	move	a3,s6
 744:	02c28021 	addu	s0,s6,v0
 748:	00008821 	move	s1,zero
 74c:	00179d80 	sll	s3,s7,0x16
 750:	24120400 	li	s2,1024
 754:	8e020000 	lw	v0,0(s0)
 758:	30420200 	andi	v0,v0,0x200
 75c:	10400005 	beqz	v0,774 <env_free+0xd8>
 760:	00000000 	nop
 764:	00112b00 	sll	a1,s1,0xc
 768:	8e8400b0 	lw	a0,176(s4)
 76c:	0c000000 	jal	0 <mkenvid>
 770:	02652825 	or	a1,s3,a1
 774:	26310001 	addiu	s1,s1,1
 778:	1632fff6 	bne	s1,s2,754 <env_free+0xb8>
 77c:	26100004 	addiu	s0,s0,4
 780:	8e8200b0 	lw	v0,176(s4)
 784:	005e1021 	addu	v0,v0,s8
 788:	ac400000 	sw	zero,0(v0)
 78c:	3c030000 	lui	v1,0x0
 790:	8c620000 	lw	v0,0(v1)
 794:	02a2102b 	sltu	v0,s5,v0
 798:	14400008 	bnez	v0,7bc <env_free+0x120>
 79c:	00151080 	sll	v0,s5,0x2
 7a0:	3c040000 	lui	a0,0x0
 7a4:	24840000 	addiu	a0,a0,0
 7a8:	24050029 	li	a1,41
 7ac:	3c060000 	lui	a2,0x0
 7b0:	24c60000 	addiu	a2,a2,0
 7b4:	0c000000 	jal	0 <mkenvid>
 7b8:	02c03821 	move	a3,s6
 7bc:	00152100 	sll	a0,s5,0x4
 7c0:	00822023 	subu	a0,a0,v0
 7c4:	3c020000 	lui	v0,0x0
 7c8:	8c420000 	lw	v0,0(v0)
 7cc:	0c000000 	jal	0 <mkenvid>
 7d0:	00822021 	addu	a0,a0,v0
 7d4:	26f70001 	addiu	s7,s7,1
 7d8:	240201fd 	li	v0,509
 7dc:	16e2ffc5 	bne	s7,v0,6f4 <env_free+0x58>
 7e0:	0017f080 	sll	s8,s7,0x2
 7e4:	8e8700b4 	lw	a3,180(s4)
 7e8:	ae8000b0 	sw	zero,176(s4)
 7ec:	ae8000b4 	sw	zero,180(s4)
 7f0:	00072302 	srl	a0,a3,0xc
 7f4:	3c020000 	lui	v0,0x0
 7f8:	8c420000 	lw	v0,0(v0)
 7fc:	0082102b 	sltu	v0,a0,v0
 800:	14400007 	bnez	v0,820 <env_free+0x184>
 804:	00041080 	sll	v0,a0,0x2
 808:	3c040000 	lui	a0,0x0
 80c:	24840000 	addiu	a0,a0,0
 810:	24050029 	li	a1,41
 814:	3c060000 	lui	a2,0x0
 818:	0c000000 	jal	0 <mkenvid>
 81c:	24c60000 	addiu	a2,a2,0
 820:	00042100 	sll	a0,a0,0x4
 824:	00822023 	subu	a0,a0,v0
 828:	3c020000 	lui	v0,0x0
 82c:	8c420000 	lw	v0,0(v0)
 830:	0c000000 	jal	0 <mkenvid>
 834:	00822021 	addu	a0,a0,v0
 838:	ae8000ac 	sw	zero,172(s4)
 83c:	3c030000 	lui	v1,0x0
 840:	8c62000c 	lw	v0,12(v1)
 844:	10400004 	beqz	v0,858 <env_free+0x1bc>
 848:	ae82009c 	sw	v0,156(s4)
 84c:	8c63000c 	lw	v1,12(v1)
 850:	2682009c 	addiu	v0,s4,156
 854:	ac6200a0 	sw	v0,160(v1)
 858:	3c020000 	lui	v0,0x0
 85c:	ac54000c 	sw	s4,12(v0)
 860:	2442000c 	addiu	v0,v0,12
 864:	ae8200a0 	sw	v0,160(s4)
 868:	8fbf0034 	lw	ra,52(sp)
 86c:	8fbe0030 	lw	s8,48(sp)
 870:	8fb7002c 	lw	s7,44(sp)
 874:	8fb60028 	lw	s6,40(sp)
 878:	8fb50024 	lw	s5,36(sp)
 87c:	8fb40020 	lw	s4,32(sp)
 880:	8fb3001c 	lw	s3,28(sp)
 884:	8fb20018 	lw	s2,24(sp)
 888:	8fb10014 	lw	s1,20(sp)
 88c:	8fb00010 	lw	s0,16(sp)
 890:	03e00008 	jr	ra
 894:	27bd0038 	addiu	sp,sp,56

00000898 <env_destroy>:
 898:	27bdffe8 	addiu	sp,sp,-24
 89c:	afbf0014 	sw	ra,20(sp)
 8a0:	afb00010 	sw	s0,16(sp)
 8a4:	0c000000 	jal	0 <mkenvid>
 8a8:	00808021 	move	s0,a0
 8ac:	3c030000 	lui	v1,0x0
 8b0:	8c620000 	lw	v0,0(v1)
 8b4:	1602000f 	bne	s0,v0,8f4 <env_destroy+0x5c>
 8b8:	8fbf0014 	lw	ra,20(sp)
 8bc:	ac600000 	sw	zero,0(v1)
 8c0:	3c020000 	lui	v0,0x0
 8c4:	8c440000 	lw	a0,0(v0)
 8c8:	2484ff64 	addiu	a0,a0,-156
 8cc:	3c0581ff 	lui	a1,0x81ff
 8d0:	34a5ff64 	ori	a1,a1,0xff64
 8d4:	0c000000 	jal	0 <mkenvid>
 8d8:	2406009c 	li	a2,156
 8dc:	3c040000 	lui	a0,0x0
 8e0:	0c000000 	jal	0 <mkenvid>
 8e4:	24840000 	addiu	a0,a0,0
 8e8:	0c000000 	jal	0 <mkenvid>
 8ec:	00000000 	nop
 8f0:	8fbf0014 	lw	ra,20(sp)
 8f4:	8fb00010 	lw	s0,16(sp)
 8f8:	03e00008 	jr	ra
 8fc:	27bd0018 	addiu	sp,sp,24

00000900 <env_run>:
 900:	27bdffe0 	addiu	sp,sp,-32
 904:	afbf001c 	sw	ra,28(sp)
 908:	afb20018 	sw	s2,24(sp)
 90c:	afb10014 	sw	s1,20(sp)
 910:	afb00010 	sw	s0,16(sp)
 914:	3c110000 	lui	s1,0x0
 918:	8e250000 	lw	a1,0(s1)
 91c:	10a00009 	beqz	a1,944 <env_run+0x44>
 920:	00809021 	move	s2,a0
 924:	3c1081ff 	lui	s0,0x81ff
 928:	3604ff64 	ori	a0,s0,0xff64
 92c:	0c000000 	jal	0 <mkenvid>
 930:	2406009c 	li	a2,156
 934:	3610ff64 	ori	s0,s0,0xff64
 938:	8e030094 	lw	v1,148(s0)
 93c:	8e220000 	lw	v0,0(s1)
 940:	ac430098 	sw	v1,152(v0)
 944:	3c020000 	lui	v0,0x0
 948:	ac520000 	sw	s2,0(v0)
 94c:	8e4700b4 	lw	a3,180(s2)
 950:	00071302 	srl	v0,a3,0xc
 954:	3c030000 	lui	v1,0x0
 958:	8c630000 	lw	v1,0(v1)
 95c:	0043102b 	sltu	v0,v0,v1
 960:	14400007 	bnez	v0,980 <env_run+0x80>
 964:	00000000 	nop
 968:	3c040000 	lui	a0,0x0
 96c:	24840000 	addiu	a0,a0,0
 970:	24050192 	li	a1,402
 974:	3c060000 	lui	a2,0x0
 978:	0c000000 	jal	0 <mkenvid>
 97c:	24c60000 	addiu	a2,a2,0
 980:	3c048000 	lui	a0,0x8000
 984:	0c000000 	jal	0 <mkenvid>
 988:	00e42021 	addu	a0,a3,a0
 98c:	3c020000 	lui	v0,0x0
 990:	8c440000 	lw	a0,0(v0)
 994:	8c8500a4 	lw	a1,164(a0)
 998:	00052ac2 	srl	a1,a1,0xb
 99c:	0c000000 	jal	0 <mkenvid>
 9a0:	00052980 	sll	a1,a1,0x6
 9a4:	3c040000 	lui	a0,0x0
 9a8:	24840000 	addiu	a0,a0,0
 9ac:	2405019c 	li	a1,412
 9b0:	3c060000 	lui	a2,0x0
 9b4:	0c000000 	jal	0 <mkenvid>
 9b8:	24c60000 	addiu	a2,a2,0
 9bc:	00000000 	nop
Disassembly of section .text:

00000000 <mkenvid>:
   0:	3c020000 	lui	v0,0x0
   4:	8c420000 	lw	v0,0(v0)
   8:	00822023 	subu	a0,a0,v0
   c:	000420c3 	sra	a0,a0,0x3
  10:	00041080 	sll	v0,a0,0x2
  14:	00041900 	sll	v1,a0,0x4
  18:	00431021 	addu	v0,v0,v1
  1c:	00441023 	subu	v0,v0,a0
  20:	00021a40 	sll	v1,v0,0x9
  24:	00621823 	subu	v1,v1,v0
  28:	00031480 	sll	v0,v1,0x12
  2c:	00621821 	addu	v1,v1,v0
  30:	00031823 	negu	v1,v1
  34:	3c040000 	lui	a0,0x0
  38:	8c820008 	lw	v0,8(a0)
  3c:	24420001 	addiu	v0,v0,1
  40:	ac820008 	sw	v0,8(a0)
  44:	000212c0 	sll	v0,v0,0xb
  48:	03e00008 	jr	ra
  4c:	00621025 	or	v0,v1,v0

00000050 <envid2env>:
  50:	14800006 	bnez	a0,6c <envid2env+0x1c>
  54:	308703ff 	andi	a3,a0,0x3ff
  58:	3c020000 	lui	v0,0x0
  5c:	8c420000 	lw	v0,0(v0)
  60:	aca20000 	sw	v0,0(a1)
  64:	03e00008 	jr	ra
  68:	00001021 	move	v0,zero
  6c:	3c020000 	lui	v0,0x0
  70:	8c490000 	lw	t1,0(v0)
  74:	000718c0 	sll	v1,a3,0x3
  78:	00071140 	sll	v0,a3,0x5
  7c:	00431023 	subu	v0,v0,v1
  80:	000218c0 	sll	v1,v0,0x3
  84:	00431021 	addu	v0,v0,v1
  88:	00494021 	addu	t0,v0,t1
  8c:	8d0200ac 	lw	v0,172(t0)
  90:	10400004 	beqz	v0,a4 <envid2env+0x54>
  94:	00000000 	nop
  98:	8d0200a4 	lw	v0,164(t0)
  9c:	10820004 	beq	a0,v0,b0 <envid2env+0x60>
  a0:	00000000 	nop
  a4:	aca00000 	sw	zero,0(a1)
  a8:	03e00008 	jr	ra
  ac:	2402fffe 	li	v0,-2
  b0:	14c0001a 	bnez	a2,11c <envid2env+0xcc>
  b4:	00000000 	nop
  b8:	10000016 	b	114 <envid2env+0xc4>
  bc:	aca80000 	sw	t0,0(a1)
  c0:	01001021 	move	v0,t0
  c4:	8c4200a8 	lw	v0,168(v0)
  c8:	304703ff 	andi	a3,v0,0x3ff
  cc:	000718c0 	sll	v1,a3,0x3
  d0:	00071140 	sll	v0,a3,0x5
  d4:	00431023 	subu	v0,v0,v1
  d8:	000218c0 	sll	v1,v0,0x3
  dc:	00431021 	addu	v0,v0,v1
  e0:	01221021 	addu	v0,t1,v0
  e4:	10820005 	beq	a0,v0,fc <envid2env+0xac>
  e8:	00000000 	nop
  ec:	10e00005 	beqz	a3,104 <envid2env+0xb4>
  f0:	00000000 	nop
  f4:	1000fff4 	b	c8 <envid2env+0x78>
  f8:	8c4200a8 	lw	v0,168(v0)
  fc:	14e00004 	bnez	a3,110 <envid2env+0xc0>
 100:	00000000 	nop
 104:	aca00000 	sw	zero,0(a1)
 108:	03e00008 	jr	ra
 10c:	2402fffe 	li	v0,-2
 110:	aca80000 	sw	t0,0(a1)
 114:	03e00008 	jr	ra
 118:	00001021 	move	v0,zero
 11c:	3c020000 	lui	v0,0x0
 120:	8c440000 	lw	a0,0(v0)
 124:	1104fff5 	beq	t0,a0,fc <envid2env+0xac>
 128:	00000000 	nop
 12c:	14e0ffe4 	bnez	a3,c0 <envid2env+0x70>
 130:	00000000 	nop
 134:	1000fff4 	b	108 <envid2env+0xb8>
 138:	aca00000 	sw	zero,0(a1)

0000013c <envid2env1>:
 13c:	14800006 	bnez	a0,158 <envid2env1+0x1c>
 140:	308703ff 	andi	a3,a0,0x3ff
 144:	3c020000 	lui	v0,0x0
 148:	8c420000 	lw	v0,0(v0)
 14c:	aca20000 	sw	v0,0(a1)
 150:	03e00008 	jr	ra
 154:	00001021 	move	v0,zero
 158:	3c020000 	lui	v0,0x0
 15c:	8c490000 	lw	t1,0(v0)
 160:	000718c0 	sll	v1,a3,0x3
 164:	00071140 	sll	v0,a3,0x5
 168:	00431023 	subu	v0,v0,v1
 16c:	000218c0 	sll	v1,v0,0x3
 170:	00431021 	addu	v0,v0,v1
 174:	00494021 	addu	t0,v0,t1
 178:	8d0200ac 	lw	v0,172(t0)
 17c:	10400004 	beqz	v0,190 <envid2env1+0x54>
 180:	00000000 	nop
 184:	8d0200a4 	lw	v0,164(t0)
 188:	10820004 	beq	a0,v0,19c <envid2env1+0x60>
 18c:	00000000 	nop
 190:	aca00000 	sw	zero,0(a1)
 194:	03e00008 	jr	ra
 198:	2402fffe 	li	v0,-2
 19c:	14c0001a 	bnez	a2,208 <envid2env1+0xcc>
 1a0:	00000000 	nop
 1a4:	10000016 	b	200 <envid2env1+0xc4>
 1a8:	aca80000 	sw	t0,0(a1)
 1ac:	01001021 	move	v0,t0
 1b0:	8c4200a8 	lw	v0,168(v0)
 1b4:	304703ff 	andi	a3,v0,0x3ff
 1b8:	000718c0 	sll	v1,a3,0x3
 1bc:	00071140 	sll	v0,a3,0x5
 1c0:	00431023 	subu	v0,v0,v1
 1c4:	000218c0 	sll	v1,v0,0x3
 1c8:	00431021 	addu	v0,v0,v1
 1cc:	01221021 	addu	v0,t1,v0
 1d0:	10820005 	beq	a0,v0,1e8 <envid2env1+0xac>
 1d4:	00000000 	nop
 1d8:	10e00005 	beqz	a3,1f0 <envid2env1+0xb4>
 1dc:	00000000 	nop
 1e0:	1000fff4 	b	1b4 <envid2env1+0x78>
 1e4:	8c4200a8 	lw	v0,168(v0)
 1e8:	14e00004 	bnez	a3,1fc <envid2env1+0xc0>
 1ec:	00000000 	nop
 1f0:	aca00000 	sw	zero,0(a1)
 1f4:	03e00008 	jr	ra
 1f8:	2402fffe 	li	v0,-2
 1fc:	aca80000 	sw	t0,0(a1)
 200:	03e00008 	jr	ra
 204:	00001021 	move	v0,zero
 208:	3c020000 	lui	v0,0x0
 20c:	8c440000 	lw	a0,0(v0)
 210:	1104fff5 	beq	t0,a0,1e8 <envid2env1+0xac>
 214:	00000000 	nop
 218:	14e0ffe4 	bnez	a3,1ac <envid2env1+0x70>
 21c:	00000000 	nop
 220:	1000fff4 	b	1f4 <envid2env1+0xb8>
 224:	aca00000 	sw	zero,0(a1)

00000228 <env_init>:
 228:	27bdffe8 	addiu	sp,sp,-24
 22c:	afbf0010 	sw	ra,16(sp)
 230:	3c040000 	lui	a0,0x0
 234:	24840000 	addiu	a0,a0,0
 238:	3c020000 	lui	v0,0x0
 23c:	0c000000 	jal	0 <mkenvid>
 240:	8c450000 	lw	a1,0(v0)
 244:	3c020000 	lui	v0,0x0
 248:	ac40000c 	sw	zero,12(v0)
 24c:	3c020003 	lui	v0,0x3
 250:	34445f28 	ori	a0,v0,0x5f28
 254:	3c050000 	lui	a1,0x0
 258:	3c070000 	lui	a3,0x0
 25c:	24e9000c 	addiu	t1,a3,12
 260:	2408ff28 	li	t0,-216
 264:	00803021 	move	a2,a0
 268:	8ca20000 	lw	v0,0(a1)
 26c:	00441021 	addu	v0,v0,a0
 270:	ac4000ac 	sw	zero,172(v0)
 274:	8ce3000c 	lw	v1,12(a3)
 278:	8ca20000 	lw	v0,0(a1)
 27c:	00441021 	addu	v0,v0,a0
 280:	10600006 	beqz	v1,29c <env_init+0x74>
 284:	ac43009c 	sw	v1,156(v0)
 288:	8ce3000c 	lw	v1,12(a3)
 28c:	8ca20000 	lw	v0,0(a1)
 290:	00821021 	addu	v0,a0,v0
 294:	2442009c 	addiu	v0,v0,156
 298:	ac6200a0 	sw	v0,160(v1)
 29c:	8ca20000 	lw	v0,0(a1)
 2a0:	00c21021 	addu	v0,a2,v0
 2a4:	ace2000c 	sw	v0,12(a3)
 2a8:	2484ff28 	addiu	a0,a0,-216
 2ac:	1488ffed 	bne	a0,t0,264 <env_init+0x3c>
 2b0:	ac4900a0 	sw	t1,160(v0)
 2b4:	3c040000 	lui	a0,0x0
 2b8:	0c000000 	jal	0 <mkenvid>
 2bc:	24840000 	addiu	a0,a0,0
 2c0:	8fbf0010 	lw	ra,16(sp)
 2c4:	03e00008 	jr	ra
 2c8:	27bd0018 	addiu	sp,sp,24

000002cc <env_setup_vm>:
 2cc:	27bdffd8 	addiu	sp,sp,-40
 2d0:	afbf0024 	sw	ra,36(sp)
 2d4:	afb00020 	sw	s0,32(sp)
 2d8:	00808021 	move	s0,a0
 2dc:	afa00018 	sw	zero,24(sp)
 2e0:	0c000000 	jal	0 <mkenvid>
 2e4:	27a40018 	addiu	a0,sp,24
 2e8:	04410007 	bgez	v0,308 <env_setup_vm+0x3c>
 2ec:	8fa30018 	lw	v1,24(sp)
 2f0:	3c040000 	lui	a0,0x0
 2f4:	24840000 	addiu	a0,a0,0
 2f8:	2405009c 	li	a1,156
 2fc:	3c060000 	lui	a2,0x0
 300:	0c000000 	jal	0 <mkenvid>
 304:	24c60000 	addiu	a2,a2,0
 308:	94620008 	lhu	v0,8(v1)
 30c:	24420001 	addiu	v0,v0,1
 310:	a4620008 	sh	v0,8(v1)
 314:	3c020000 	lui	v0,0x0
 318:	8c420000 	lw	v0,0(v0)
 31c:	8fa30018 	lw	v1,24(sp)
 320:	00621823 	subu	v1,v1,v0
 324:	00031883 	sra	v1,v1,0x2
 328:	00031080 	sll	v0,v1,0x2
 32c:	00431021 	addu	v0,v0,v1
 330:	00021900 	sll	v1,v0,0x4
 334:	00431021 	addu	v0,v0,v1
 338:	00021a00 	sll	v1,v0,0x8
 33c:	00431021 	addu	v0,v0,v1
 340:	00021c00 	sll	v1,v0,0x10
 344:	00431021 	addu	v0,v0,v1
 348:	00021023 	negu	v0,v0
 34c:	00023b00 	sll	a3,v0,0xc
 350:	00071302 	srl	v0,a3,0xc
 354:	3c030000 	lui	v1,0x0
 358:	8c630000 	lw	v1,0(v1)
 35c:	0043102b 	sltu	v0,v0,v1
 360:	14400007 	bnez	v0,380 <env_setup_vm+0xb4>
 364:	3c028000 	lui	v0,0x8000
 368:	3c040000 	lui	a0,0x0
 36c:	24840000 	addiu	a0,a0,0
 370:	24050030 	li	a1,48
 374:	3c060000 	lui	a2,0x0
 378:	0c000000 	jal	0 <mkenvid>
 37c:	24c60000 	addiu	a2,a2,0
 380:	00e23821 	addu	a3,a3,v0
 384:	00001821 	move	v1,zero
 388:	3c047f40 	lui	a0,0x7f40
 38c:	00031582 	srl	v0,v1,0x16
 390:	00021080 	sll	v0,v0,0x2
 394:	00471021 	addu	v0,v0,a3
 398:	24631000 	addiu	v1,v1,4096
 39c:	1464fffb 	bne	v1,a0,38c <env_setup_vm+0xc0>
 3a0:	ac400000 	sw	zero,0(v0)
 3a4:	240407f4 	li	a0,2036
 3a8:	3c060000 	lui	a2,0x0
 3ac:	24051000 	li	a1,4096
 3b0:	00e41021 	addu	v0,a3,a0
 3b4:	8cc30000 	lw	v1,0(a2)
 3b8:	00831821 	addu	v1,a0,v1
 3bc:	8c630000 	lw	v1,0(v1)
 3c0:	24840004 	addiu	a0,a0,4
 3c4:	1485fffa 	bne	a0,a1,3b0 <env_setup_vm+0xe4>
 3c8:	ac430000 	sw	v1,0(v0)
 3cc:	ae0700b0 	sw	a3,176(s0)
 3d0:	04e00007 	bltz	a3,3f0 <env_setup_vm+0x124>
 3d4:	00e01021 	move	v0,a3
 3d8:	3c040000 	lui	a0,0x0
 3dc:	24840000 	addiu	a0,a0,0
 3e0:	240500b9 	li	a1,185
 3e4:	3c060000 	lui	a2,0x0
 3e8:	0c000000 	jal	0 <mkenvid>
 3ec:	24c60000 	addiu	a2,a2,0
 3f0:	3c078000 	lui	a3,0x8000
 3f4:	00473821 	addu	a3,v0,a3
 3f8:	ae0700b4 	sw	a3,180(s0)
 3fc:	8e0400b0 	lw	a0,176(s0)
 400:	24020400 	li	v0,1024
 404:	afa20010 	sw	v0,16(sp)
 408:	3c057fc0 	lui	a1,0x7fc0
 40c:	0c000000 	jal	0 <mkenvid>
 410:	3c060040 	lui	a2,0x40
 414:	8e0300b0 	lw	v1,176(s0)
 418:	8e0200b4 	lw	v0,180(s0)
 41c:	34420600 	ori	v0,v0,0x600
 420:	ac6207fc 	sw	v0,2044(v1)
 424:	00001021 	move	v0,zero
 428:	8fbf0024 	lw	ra,36(sp)
 42c:	8fb00020 	lw	s0,32(sp)
 430:	03e00008 	jr	ra
 434:	27bd0028 	addiu	sp,sp,40

00000438 <env_alloc>:
 438:	27bdffe0 	addiu	sp,sp,-32
 43c:	afbf001c 	sw	ra,28(sp)
 440:	afb20018 	sw	s2,24(sp)
 444:	afb10014 	sw	s1,20(sp)
 448:	afb00010 	sw	s0,16(sp)
 44c:	00809021 	move	s2,a0
 450:	3c020000 	lui	v0,0x0
 454:	8c50000c 	lw	s0,12(v0)
 458:	16000003 	bnez	s0,468 <env_alloc+0x30>
 45c:	00a08821 	move	s1,a1
 460:	1000001e 	b	4dc <env_alloc+0xa4>
 464:	2402fffb 	li	v0,-5
 468:	0c0000b3 	jal	2cc <env_setup_vm>
 46c:	02002021 	move	a0,s0
 470:	0440001b 	bltz	v0,4e0 <env_alloc+0xa8>
 474:	8fbf001c 	lw	ra,28(sp)
 478:	0c000000 	jal	0 <mkenvid>
 47c:	02002021 	move	a0,s0
 480:	ae0200a4 	sw	v0,164(s0)
 484:	ae1100a8 	sw	s1,168(s0)
 488:	24020001 	li	v0,1
 48c:	ae0200ac 	sw	v0,172(s0)
 490:	3c027f3f 	lui	v0,0x7f3f
 494:	3442e000 	ori	v0,v0,0xe000
 498:	ae020074 	sw	v0,116(s0)
 49c:	3c021000 	lui	v0,0x1000
 4a0:	34421004 	ori	v0,v0,0x1004
 4a4:	ae020080 	sw	v0,128(s0)
 4a8:	ae0000c0 	sw	zero,192(s0)
 4ac:	ae0000cc 	sw	zero,204(s0)
 4b0:	ae0000d0 	sw	zero,208(s0)
 4b4:	8e03009c 	lw	v1,156(s0)
 4b8:	10600003 	beqz	v1,4c8 <env_alloc+0x90>
 4bc:	00000000 	nop
 4c0:	8e0200a0 	lw	v0,160(s0)
 4c4:	ac6200a0 	sw	v0,160(v1)
 4c8:	8e0300a0 	lw	v1,160(s0)
 4cc:	8e02009c 	lw	v0,156(s0)
 4d0:	ac620000 	sw	v0,0(v1)
 4d4:	ae500000 	sw	s0,0(s2)
 4d8:	00001021 	move	v0,zero
 4dc:	8fbf001c 	lw	ra,28(sp)
 4e0:	8fb20018 	lw	s2,24(sp)
 4e4:	8fb10014 	lw	s1,20(sp)
 4e8:	8fb00010 	lw	s0,16(sp)
 4ec:	03e00008 	jr	ra
 4f0:	27bd0020 	addiu	sp,sp,32

000004f4 <load_icode>:
 4f4:	27bdffc0 	addiu	sp,sp,-64
 4f8:	afbf0038 	sw	ra,56(sp)
 4fc:	afb70034 	sw	s7,52(sp)
 500:	afb60030 	sw	s6,48(sp)
 504:	afb5002c 	sw	s5,44(sp)
 508:	afb40028 	sw	s4,40(sp)
 50c:	afb30024 	sw	s3,36(sp)
 510:	afb20020 	sw	s2,32(sp)
 514:	afb1001c 	sw	s1,28(sp)
 518:	afb00018 	sw	s0,24(sp)
 51c:	00808821 	move	s1,a0
 520:	00c0b821 	move	s7,a2
 524:	afa00010 	sw	zero,16(sp)
 528:	24b21000 	addiu	s2,a1,4096
 52c:	0c000000 	jal	0 <mkenvid>
 530:	27a40010 	addiu	a0,sp,16
 534:	8fa20010 	lw	v0,16(sp)
 538:	94430008 	lhu	v1,8(v0)
 53c:	24630001 	addiu	v1,v1,1
 540:	a4430008 	sh	v1,8(v0)
 544:	8e2400b0 	lw	a0,176(s1)
 548:	8fa50010 	lw	a1,16(sp)
 54c:	3c067f3f 	lui	a2,0x7f3f
 550:	34c6d000 	ori	a2,a2,0xd000
 554:	0c000000 	jal	0 <mkenvid>
 558:	24070600 	li	a3,1536
 55c:	12e00031 	beqz	s7,624 <load_icode+0x130>
 560:	3c020040 	lui	v0,0x40
 564:	00008021 	move	s0,zero
 568:	3c160000 	lui	s6,0x0
 56c:	3c150000 	lui	s5,0x0
 570:	3c148000 	lui	s4,0x8000
 574:	3c130040 	lui	s3,0x40
 578:	0c000000 	jal	0 <mkenvid>
 57c:	27a40010 	addiu	a0,sp,16
 580:	8fa30010 	lw	v1,16(sp)
 584:	94620008 	lhu	v0,8(v1)
 588:	24420001 	addiu	v0,v0,1
 58c:	a4620008 	sh	v0,8(v1)
 590:	8ec20000 	lw	v0,0(s6)
 594:	8fa30010 	lw	v1,16(sp)
 598:	00621823 	subu	v1,v1,v0
 59c:	00031883 	sra	v1,v1,0x2
 5a0:	00031080 	sll	v0,v1,0x2
 5a4:	00431021 	addu	v0,v0,v1
 5a8:	00021900 	sll	v1,v0,0x4
 5ac:	00431021 	addu	v0,v0,v1
 5b0:	00021a00 	sll	v1,v0,0x8
 5b4:	00431021 	addu	v0,v0,v1
 5b8:	00021c00 	sll	v1,v0,0x10
 5bc:	00431021 	addu	v0,v0,v1
 5c0:	00021023 	negu	v0,v0
 5c4:	00023b00 	sll	a3,v0,0xc
 5c8:	00071302 	srl	v0,a3,0xc
 5cc:	8ea30000 	lw	v1,0(s5)
 5d0:	0043102b 	sltu	v0,v0,v1
 5d4:	14400007 	bnez	v0,5f4 <load_icode+0x100>
 5d8:	02502021 	addu	a0,s2,s0
 5dc:	3c040000 	lui	a0,0x0
 5e0:	24840000 	addiu	a0,a0,0
 5e4:	24050030 	li	a1,48
 5e8:	3c060000 	lui	a2,0x0
 5ec:	0c000000 	jal	0 <mkenvid>
 5f0:	24c60000 	addiu	a2,a2,0
 5f4:	00f42821 	addu	a1,a3,s4
 5f8:	0c000000 	jal	0 <mkenvid>
 5fc:	24061000 	li	a2,4096
 600:	8e2400b0 	lw	a0,176(s1)
 604:	8fa50010 	lw	a1,16(sp)
 608:	02133021 	addu	a2,s0,s3
 60c:	0c000000 	jal	0 <mkenvid>
 610:	24070600 	li	a3,1536
 614:	26101000 	addiu	s0,s0,4096
 618:	0217102b 	sltu	v0,s0,s7
 61c:	1440ffd6 	bnez	v0,578 <load_icode+0x84>
 620:	3c020040 	lui	v0,0x40
 624:	ae220098 	sw	v0,152(s1)
 628:	3c040000 	lui	a0,0x0
 62c:	24840000 	addiu	a0,a0,0
 630:	3c050040 	lui	a1,0x40
 634:	0c000000 	jal	0 <mkenvid>
 638:	8e2600b4 	lw	a2,180(s1)
 63c:	8fbf0038 	lw	ra,56(sp)
 640:	8fb70034 	lw	s7,52(sp)
 644:	8fb60030 	lw	s6,48(sp)
 648:	8fb5002c 	lw	s5,44(sp)
 64c:	8fb40028 	lw	s4,40(sp)
 650:	8fb30024 	lw	s3,36(sp)
 654:	8fb20020 	lw	s2,32(sp)
 658:	8fb1001c 	lw	s1,28(sp)
 65c:	8fb00018 	lw	s0,24(sp)
 660:	03e00008 	jr	ra
 664:	27bd0040 	addiu	sp,sp,64

00000668 <env_create>:
 668:	27bdffd8 	addiu	sp,sp,-40
 66c:	afbf0020 	sw	ra,32(sp)
 670:	afb1001c 	sw	s1,28(sp)
 674:	afb00018 	sw	s0,24(sp)
 678:	00808021 	move	s0,a0
 67c:	00a08821 	move	s1,a1
 680:	27a40010 	addiu	a0,sp,16
 684:	0c000000 	jal	0 <mkenvid>
 688:	00002821 	move	a1,zero
 68c:	8fa40010 	lw	a0,16(sp)
 690:	02002821 	move	a1,s0
 694:	0c00013d 	jal	4f4 <load_icode>
 698:	02203021 	move	a2,s1
 69c:	8fbf0020 	lw	ra,32(sp)
 6a0:	8fb1001c 	lw	s1,28(sp)
 6a4:	8fb00018 	lw	s0,24(sp)
 6a8:	03e00008 	jr	ra
 6ac:	27bd0028 	addiu	sp,sp,40

000006b0 <env_free>:
 6b0:	27bdffc8 	addiu	sp,sp,-56
 6b4:	afbf0034 	sw	ra,52(sp)
 6b8:	afbe0030 	sw	s8,48(sp)
 6bc:	afb7002c 	sw	s7,44(sp)
 6c0:	afb60028 	sw	s6,40(sp)
 6c4:	afb50024 	sw	s5,36(sp)
 6c8:	afb40020 	sw	s4,32(sp)
 6cc:	afb3001c 	sw	s3,28(sp)
 6d0:	afb20018 	sw	s2,24(sp)
 6d4:	afb10014 	sw	s1,20(sp)
 6d8:	afb00010 	sw	s0,16(sp)
 6dc:	3c020000 	lui	v0,0x0
 6e0:	8c450000 	lw	a1,0(v0)
 6e4:	10a00002 	beqz	a1,6f0 <env_free+0x40>
 6e8:	0080a021 	move	s4,a0
 6ec:	8ca500a4 	lw	a1,164(a1)
 6f0:	3c040000 	lui	a0,0x0
 6f4:	24840000 	addiu	a0,a0,0
 6f8:	0c000000 	jal	0 <mkenvid>
 6fc:	8e8600a4 	lw	a2,164(s4)
 700:	0000b821 	move	s7,zero
 704:	0017f080 	sll	s8,s7,0x2
 708:	8e8200b0 	lw	v0,176(s4)
 70c:	005e1021 	addu	v0,v0,s8
 710:	8c470000 	lw	a3,0(v0)
 714:	30e20200 	andi	v0,a3,0x200
 718:	10400033 	beqz	v0,7e8 <env_free+0x138>
 71c:	2402f000 	li	v0,-4096
 720:	00e2b024 	and	s6,a3,v0
 724:	0016ab02 	srl	s5,s6,0xc
 728:	3c030000 	lui	v1,0x0
 72c:	8c620000 	lw	v0,0(v1)
 730:	02a2102b 	sltu	v0,s5,v0
 734:	14400008 	bnez	v0,758 <env_free+0xa8>
 738:	3c028000 	lui	v0,0x8000
 73c:	3c040000 	lui	a0,0x0
 740:	24840000 	addiu	a0,a0,0
 744:	2405014d 	li	a1,333
 748:	3c060000 	lui	a2,0x0
 74c:	24c60000 	addiu	a2,a2,0
 750:	0c000000 	jal	0 <mkenvid>
 754:	02c03821 	move	a3,s6
 758:	02c28021 	addu	s0,s6,v0
 75c:	00008821 	move	s1,zero
 760:	00179d80 	sll	s3,s7,0x16
 764:	24120400 	li	s2,1024
 768:	8e020000 	lw	v0,0(s0)
 76c:	30420200 	andi	v0,v0,0x200
 770:	10400005 	beqz	v0,788 <env_free+0xd8>
 774:	00000000 	nop
 778:	00112b00 	sll	a1,s1,0xc
 77c:	8e8400b0 	lw	a0,176(s4)
 780:	0c000000 	jal	0 <mkenvid>
 784:	02652825 	or	a1,s3,a1
 788:	26310001 	addiu	s1,s1,1
 78c:	1632fff6 	bne	s1,s2,768 <env_free+0xb8>
 790:	26100004 	addiu	s0,s0,4
 794:	8e8200b0 	lw	v0,176(s4)
 798:	005e1021 	addu	v0,v0,s8
 79c:	ac400000 	sw	zero,0(v0)
 7a0:	3c030000 	lui	v1,0x0
 7a4:	8c620000 	lw	v0,0(v1)
 7a8:	02a2102b 	sltu	v0,s5,v0
 7ac:	14400008 	bnez	v0,7d0 <env_free+0x120>
 7b0:	00151080 	sll	v0,s5,0x2
 7b4:	3c040000 	lui	a0,0x0
 7b8:	24840000 	addiu	a0,a0,0
 7bc:	24050029 	li	a1,41
 7c0:	3c060000 	lui	a2,0x0
 7c4:	24c60000 	addiu	a2,a2,0
 7c8:	0c000000 	jal	0 <mkenvid>
 7cc:	02c03821 	move	a3,s6
 7d0:	00152100 	sll	a0,s5,0x4
 7d4:	00822023 	subu	a0,a0,v0
 7d8:	3c020000 	lui	v0,0x0
 7dc:	8c420000 	lw	v0,0(v0)
 7e0:	0c000000 	jal	0 <mkenvid>
 7e4:	00822021 	addu	a0,a0,v0
 7e8:	26f70001 	addiu	s7,s7,1
 7ec:	240201fd 	li	v0,509
 7f0:	16e2ffc5 	bne	s7,v0,708 <env_free+0x58>
 7f4:	0017f080 	sll	s8,s7,0x2
 7f8:	8e8700b4 	lw	a3,180(s4)
 7fc:	ae8000b0 	sw	zero,176(s4)
 800:	ae8000b4 	sw	zero,180(s4)
 804:	00072302 	srl	a0,a3,0xc
 808:	3c020000 	lui	v0,0x0
 80c:	8c420000 	lw	v0,0(v0)
 810:	0082102b 	sltu	v0,a0,v0
 814:	14400007 	bnez	v0,834 <env_free+0x184>
 818:	00041080 	sll	v0,a0,0x2
 81c:	3c040000 	lui	a0,0x0
 820:	24840000 	addiu	a0,a0,0
 824:	24050029 	li	a1,41
 828:	3c060000 	lui	a2,0x0
 82c:	0c000000 	jal	0 <mkenvid>
 830:	24c60000 	addiu	a2,a2,0
 834:	00042100 	sll	a0,a0,0x4
 838:	00822023 	subu	a0,a0,v0
 83c:	3c020000 	lui	v0,0x0
 840:	8c420000 	lw	v0,0(v0)
 844:	0c000000 	jal	0 <mkenvid>
 848:	00822021 	addu	a0,a0,v0
 84c:	ae8000ac 	sw	zero,172(s4)
 850:	3c030000 	lui	v1,0x0
 854:	8c62000c 	lw	v0,12(v1)
 858:	10400004 	beqz	v0,86c <env_free+0x1bc>
 85c:	ae82009c 	sw	v0,156(s4)
 860:	8c63000c 	lw	v1,12(v1)
 864:	2682009c 	addiu	v0,s4,156
 868:	ac6200a0 	sw	v0,160(v1)
 86c:	3c020000 	lui	v0,0x0
 870:	ac54000c 	sw	s4,12(v0)
 874:	2442000c 	addiu	v0,v0,12
 878:	ae8200a0 	sw	v0,160(s4)
 87c:	8fbf0034 	lw	ra,52(sp)
 880:	8fbe0030 	lw	s8,48(sp)
 884:	8fb7002c 	lw	s7,44(sp)
 888:	8fb60028 	lw	s6,40(sp)
 88c:	8fb50024 	lw	s5,36(sp)
 890:	8fb40020 	lw	s4,32(sp)
 894:	8fb3001c 	lw	s3,28(sp)
 898:	8fb20018 	lw	s2,24(sp)
 89c:	8fb10014 	lw	s1,20(sp)
 8a0:	8fb00010 	lw	s0,16(sp)
 8a4:	03e00008 	jr	ra
 8a8:	27bd0038 	addiu	sp,sp,56

000008ac <env_destroy>:
 8ac:	27bdffe8 	addiu	sp,sp,-24
 8b0:	afbf0014 	sw	ra,20(sp)
 8b4:	afb00010 	sw	s0,16(sp)
 8b8:	0c000000 	jal	0 <mkenvid>
 8bc:	00808021 	move	s0,a0
 8c0:	3c030000 	lui	v1,0x0
 8c4:	8c620000 	lw	v0,0(v1)
 8c8:	1602000f 	bne	s0,v0,908 <env_destroy+0x5c>
 8cc:	8fbf0014 	lw	ra,20(sp)
 8d0:	ac600000 	sw	zero,0(v1)
 8d4:	3c020000 	lui	v0,0x0
 8d8:	8c440000 	lw	a0,0(v0)
 8dc:	2484ff64 	addiu	a0,a0,-156
 8e0:	3c0581ff 	lui	a1,0x81ff
 8e4:	34a5ff64 	ori	a1,a1,0xff64
 8e8:	0c000000 	jal	0 <mkenvid>
 8ec:	2406009c 	li	a2,156
 8f0:	3c040000 	lui	a0,0x0
 8f4:	0c000000 	jal	0 <mkenvid>
 8f8:	24840000 	addiu	a0,a0,0
 8fc:	0c000000 	jal	0 <mkenvid>
 900:	00000000 	nop
 904:	8fbf0014 	lw	ra,20(sp)
 908:	8fb00010 	lw	s0,16(sp)
 90c:	03e00008 	jr	ra
 910:	27bd0018 	addiu	sp,sp,24

00000914 <env_run>:
 914:	27bdffe0 	addiu	sp,sp,-32
 918:	afbf001c 	sw	ra,28(sp)
 91c:	afb20018 	sw	s2,24(sp)
 920:	afb10014 	sw	s1,20(sp)
 924:	afb00010 	sw	s0,16(sp)
 928:	3c110000 	lui	s1,0x0
 92c:	8e250000 	lw	a1,0(s1)
 930:	10a00009 	beqz	a1,958 <env_run+0x44>
 934:	00809021 	move	s2,a0
 938:	3c1081ff 	lui	s0,0x81ff
 93c:	3604ff64 	ori	a0,s0,0xff64
 940:	0c000000 	jal	0 <mkenvid>
 944:	2406009c 	li	a2,156
 948:	3610ff64 	ori	s0,s0,0xff64
 94c:	8e030094 	lw	v1,148(s0)
 950:	8e220000 	lw	v0,0(s1)
 954:	ac430098 	sw	v1,152(v0)
 958:	3c020000 	lui	v0,0x0
 95c:	ac520000 	sw	s2,0(v0)
 960:	8e4700b4 	lw	a3,180(s2)
 964:	00071302 	srl	v0,a3,0xc
 968:	3c030000 	lui	v1,0x0
 96c:	8c630000 	lw	v1,0(v1)
 970:	0043102b 	sltu	v0,v0,v1
 974:	14400007 	bnez	v0,994 <env_run+0x80>
 978:	00000000 	nop
 97c:	3c040000 	lui	a0,0x0
 980:	24840000 	addiu	a0,a0,0
 984:	24050192 	li	a1,402
 988:	3c060000 	lui	a2,0x0
 98c:	0c000000 	jal	0 <mkenvid>
 990:	24c60000 	addiu	a2,a2,0
 994:	3c048000 	lui	a0,0x8000
 998:	0c000000 	jal	0 <mkenvid>
 99c:	00e42021 	addu	a0,a3,a0
 9a0:	3c020000 	lui	v0,0x0
 9a4:	8c440000 	lw	a0,0(v0)
 9a8:	8c8500a4 	lw	a1,164(a0)
 9ac:	00052ac2 	srl	a1,a1,0xb
 9b0:	0c000000 	jal	0 <mkenvid>
 9b4:	00052980 	sll	a1,a1,0x6
 9b8:	3c040000 	lui	a0,0x0
 9bc:	24840000 	addiu	a0,a0,0
 9c0:	2405019c 	li	a1,412
 9c4:	3c060000 	lui	a2,0x0
 9c8:	0c000000 	jal	0 <mkenvid>
 9cc:	24c60000 	addiu	a2,a2,0
